target datalayout = "e-m:e-p270:32:32-p271:32:32-p272:64:64-i64:64-i128:128-f80:128-n8:16:32:64-S128"
target triple = "x86_64-pc-linux-gnu"

%"class.std::__cxx11::basic_string" = type { %"struct.std::__cxx11::basic_string<char>::_Alloc_hider", i64, %union.anon }
%"struct.std::__cxx11::basic_string<char>::_Alloc_hider" = type { ptr }
%union.anon = type { i64, [8 x i8] }
%"struct.open_spiel::algorithms::CFRInfoStateValues" = type { %"class.std::vector.16", %"class.std::vector.21", %"class.std::vector.21", %"class.std::vector.21" }
%"class.std::vector.16" = type { %"struct.std::_Vector_base.17" }
%"struct.std::_Vector_base.17" = type { %"struct.std::_Vector_base<long, std::allocator<long>>::_Vector_impl" }
%"struct.std::_Vector_base<long, std::allocator<long>>::_Vector_impl" = type { %"struct.std::_Vector_base<long, std::allocator<long>>::_Vector_impl_data" }
%"struct.std::_Vector_base<long, std::allocator<long>>::_Vector_impl_data" = type { ptr, ptr, ptr }
%"class.std::vector.21" = type { %"struct.std::_Vector_base.22" }
%"struct.std::_Vector_base.22" = type { %"struct.std::_Vector_base<double, std::allocator<double>>::_Vector_impl" }
%"struct.std::_Vector_base<double, std::allocator<double>>::_Vector_impl" = type { %"struct.std::_Vector_base<double, std::allocator<double>>::_Vector_impl_data" }
%"struct.std::_Vector_base<double, std::allocator<double>>::_Vector_impl_data" = type { ptr, ptr, ptr }

@.str.2 = private unnamed_addr constant [127 x i8] c"generated/home/dtcxzyw/WorkSpace/Projects/compilers/llvm-opt-benchmark/bench/openspiel/open_spiel/open_spiel/algorithms/cfr.cc\00", align 1
@.str.3 = private unnamed_addr constant [2 x i8] c":\00", align 1
@.str.4 = private unnamed_addr constant [2 x i8] c" \00", align 1
@.str.7 = private unnamed_addr constant [4 x i8] c" = \00", align 1
@.str.36 = private unnamed_addr constant [10 x i8] c"delta > 0\00", align 1
@.str.37 = private unnamed_addr constant [7 x i8] c"\0Adelta\00", align 1
@.str.38 = private unnamed_addr constant [7 x i8] c", 0 = \00", align 1

; Function Attrs: mustprogress nounwind uwtable
define linkonce_odr noundef i64 @_ZNKSt6vectorIlSaIlEE4sizeEv(ptr noundef nonnull align 8 dereferenceable(24) %0) #4 comdat align 2 {
  %2 = alloca ptr, align 8
  store ptr %0, ptr %2, align 8
  %3 = load ptr, ptr %2, align 8
  %4 = getelementptr inbounds nuw %"struct.std::_Vector_base.17", ptr %3, i32 0, i32 0
  %5 = getelementptr inbounds nuw %"struct.std::_Vector_base<long, std::allocator<long>>::_Vector_impl_data", ptr %4, i32 0, i32 1
  %6 = load ptr, ptr %5, align 8
  %7 = getelementptr inbounds nuw %"struct.std::_Vector_base.17", ptr %3, i32 0, i32 0
  %8 = getelementptr inbounds nuw %"struct.std::_Vector_base<long, std::allocator<long>>::_Vector_impl_data", ptr %7, i32 0, i32 0
  %9 = load ptr, ptr %8, align 8
  %10 = ptrtoint ptr %6 to i64
  %11 = ptrtoint ptr %9 to i64
  %12 = sub i64 %10, %11
  %13 = sdiv exact i64 %12, 8
  ret i64 %13
}

; Function Attrs: mustprogress nounwind uwtable
define linkonce_odr noundef nonnull align 8 dereferenceable(8) ptr @_ZSt3maxIdERKT_S2_S2_(ptr noundef nonnull align 8 dereferenceable(8) %0, ptr noundef nonnull align 8 dereferenceable(8) %1) #4 comdat {
  %3 = alloca ptr, align 8
  %4 = alloca ptr, align 8
  %5 = alloca ptr, align 8
  store ptr %0, ptr %4, align 8
  store ptr %1, ptr %5, align 8
  %6 = load ptr, ptr %4, align 8
  %7 = load double, ptr %6, align 8
  %8 = load ptr, ptr %5, align 8
  %9 = load double, ptr %8, align 8
  %10 = fcmp olt double %7, %9
  br i1 %10, label %11, label %13

11:                                               ; preds = %2
  %12 = load ptr, ptr %5, align 8
  store ptr %12, ptr %3, align 8
  br label %15

13:                                               ; preds = %2
  %14 = load ptr, ptr %4, align 8
  store ptr %14, ptr %3, align 8
  br label %15

15:                                               ; preds = %13, %11
  %16 = load ptr, ptr %3, align 8
  ret ptr %16
}

; Function Attrs: mustprogress nounwind uwtable
define linkonce_odr noundef nonnull align 8 dereferenceable(8) ptr @_ZNSt6vectorIdSaIdEEixEm(ptr noundef nonnull align 8 dereferenceable(24) %0, i64 noundef %1) #4 comdat align 2 {
  %3 = alloca ptr, align 8
  %4 = alloca i64, align 8
  store ptr %0, ptr %3, align 8
  store i64 %1, ptr %4, align 8
  %5 = load ptr, ptr %3, align 8
  %6 = getelementptr inbounds nuw %"struct.std::_Vector_base.22", ptr %5, i32 0, i32 0
  %7 = getelementptr inbounds nuw %"struct.std::_Vector_base<double, std::allocator<double>>::_Vector_impl_data", ptr %6, i32 0, i32 0
  %8 = load ptr, ptr %7, align 8
  %9 = load i64, ptr %4, align 8
  %10 = getelementptr inbounds double, ptr %8, i64 %9
  ret ptr %10
}

; Function Attrs: mustprogress nounwind uwtable
define linkonce_odr noundef i32 @_ZNK10open_spiel10algorithms18CFRInfoStateValues11num_actionsEv(ptr noundef nonnull align 8 dereferenceable(96) %0) #4 comdat align 2 {
  %2 = alloca ptr, align 8
  store ptr %0, ptr %2, align 8
  %3 = load ptr, ptr %2, align 8
  %4 = getelementptr inbounds nuw %"struct.open_spiel::algorithms::CFRInfoStateValues", ptr %3, i32 0, i32 0
  %5 = call noundef i64 @_ZNKSt6vectorIlSaIlEE4sizeEv(ptr noundef nonnull align 8 dereferenceable(24) %4) #3
  %6 = trunc i64 %5 to i32
  ret i32 %6
}

; Function Attrs: mustprogress uwtable
define void @_ZN10open_spiel10algorithms18CFRInfoStateValues30ApplyRegretMatchingAllPositiveEd(ptr noundef nonnull align 8 dereferenceable(96) %0, double noundef %1) #5 align 2 personality ptr @__gxx_personality_v0 {
  %3 = alloca ptr, align 8
  %4 = alloca double, align 8
  %5 = alloca double, align 8
  %6 = alloca i32, align 4
  %7 = alloca %"class.std::__cxx11::basic_string", align 8
  %8 = alloca i32, align 4
  %9 = alloca ptr, align 8
  %10 = alloca i32, align 4
  %11 = alloca double, align 8
  %12 = alloca i32, align 4
  %13 = alloca i32, align 4
  store ptr %0, ptr %3, align 8
  store double %1, ptr %4, align 8
  %14 = load ptr, ptr %3, align 8
  br label %15

15:                                               ; preds = %2
  %16 = load double, ptr %4, align 8
  store double %16, ptr %5, align 8
  store i32 0, ptr %6, align 4
  %17 = load double, ptr %5, align 8
  %18 = load i32, ptr %6, align 4
  %19 = sitofp i32 %18 to double
  %20 = fcmp ogt double %17, %19
  br i1 %20, label %27, label %21

21:                                               ; preds = %15
  store i32 586, ptr %8, align 4
  call void @_ZN10open_spiel8internal11SpielStrCatIJRA127_KcRA2_S2_iS6_RA10_S2_RA7_S2_RA4_S2_RdSA_RiEEENSt7__cxx1112basic_stringIcSt11char_traitsIcESaIcEEEDpOT_(ptr dead_on_unwind writable sret(%"class.std::__cxx11::basic_string") align 8 %7, ptr noundef nonnull align 1 dereferenceable(127) @.str.2, ptr noundef nonnull align 1 dereferenceable(2) @.str.3, ptr noundef nonnull align 4 dereferenceable(4) %8, ptr noundef nonnull align 1 dereferenceable(2) @.str.4, ptr noundef nonnull align 1 dereferenceable(10) @.str.36, ptr noundef nonnull align 1 dereferenceable(7) @.str.37, ptr noundef nonnull align 1 dereferenceable(4) @.str.7, ptr noundef nonnull align 8 dereferenceable(8) %5, ptr noundef nonnull align 1 dereferenceable(7) @.str.38, ptr noundef nonnull align 4 dereferenceable(4) %6)
  invoke void @_ZN10open_spiel15SpielFatalErrorERKNSt7__cxx1112basic_stringIcSt11char_traitsIcESaIcEEE(ptr noundef nonnull align 8 dereferenceable(32) %7) #17
          to label %22 unwind label %23

22:                                               ; preds = %21
  unreachable

23:                                               ; preds = %21
  %24 = landingpad { ptr, i32 }
          cleanup
  %25 = extractvalue { ptr, i32 } %24, 0
  store ptr %25, ptr %9, align 8
  %26 = extractvalue { ptr, i32 } %24, 1
  store i32 %26, ptr %10, align 4
  call void @_ZNSt7__cxx1112basic_stringIcSt11char_traitsIcESaIcEED1Ev(ptr noundef nonnull align 8 dereferenceable(32) %7) #3
  br label %67

27:                                               ; preds = %15
  br label %28

28:                                               ; preds = %27
  store double 0.000000e+00, ptr %11, align 8
  store i32 0, ptr %12, align 4
  br label %29

29:                                               ; preds = %42, %28
  %30 = load i32, ptr %12, align 4
  %31 = call noundef i32 @_ZNK10open_spiel10algorithms18CFRInfoStateValues11num_actionsEv(ptr noundef nonnull align 8 dereferenceable(96) %14)
  %32 = icmp slt i32 %30, %31
  br i1 %32, label %33, label %45

33:                                               ; preds = %29
  %34 = getelementptr inbounds nuw %"struct.open_spiel::algorithms::CFRInfoStateValues", ptr %14, i32 0, i32 1
  %35 = load i32, ptr %12, align 4
  %36 = sext i32 %35 to i64
  %37 = call noundef nonnull align 8 dereferenceable(8) ptr @_ZNSt6vectorIdSaIdEEixEm(ptr noundef nonnull align 8 dereferenceable(24) %34, i64 noundef %36) #3
  %38 = call noundef nonnull align 8 dereferenceable(8) ptr @_ZSt3maxIdERKT_S2_S2_(ptr noundef nonnull align 8 dereferenceable(8) %37, ptr noundef nonnull align 8 dereferenceable(8) %4)
  %39 = load double, ptr %38, align 8
  %40 = load double, ptr %11, align 8
  %41 = fadd double %40, %39
  store double %41, ptr %11, align 8
  br label %42

42:                                               ; preds = %33
  %43 = load i32, ptr %12, align 4
  %44 = add nsw i32 %43, 1
  store i32 %44, ptr %12, align 4
  br label %29, !llvm.loop !20

45:                                               ; preds = %29
  store i32 0, ptr %13, align 4
  br label %46

46:                                               ; preds = %63, %45
  %47 = load i32, ptr %13, align 4
  %48 = call noundef i32 @_ZNK10open_spiel10algorithms18CFRInfoStateValues11num_actionsEv(ptr noundef nonnull align 8 dereferenceable(96) %14)
  %49 = icmp slt i32 %47, %48
  br i1 %49, label %50, label %66

50:                                               ; preds = %46
  %51 = getelementptr inbounds nuw %"struct.open_spiel::algorithms::CFRInfoStateValues", ptr %14, i32 0, i32 1
  %52 = load i32, ptr %13, align 4
  %53 = sext i32 %52 to i64
  %54 = call noundef nonnull align 8 dereferenceable(8) ptr @_ZNSt6vectorIdSaIdEEixEm(ptr noundef nonnull align 8 dereferenceable(24) %51, i64 noundef %53) #3
  %55 = call noundef nonnull align 8 dereferenceable(8) ptr @_ZSt3maxIdERKT_S2_S2_(ptr noundef nonnull align 8 dereferenceable(8) %54, ptr noundef nonnull align 8 dereferenceable(8) %4)
  %56 = load double, ptr %55, align 8
  %57 = load double, ptr %11, align 8
  %58 = fdiv double %56, %57
  %59 = getelementptr inbounds nuw %"struct.open_spiel::algorithms::CFRInfoStateValues", ptr %14, i32 0, i32 3
  %60 = load i32, ptr %13, align 4
  %61 = sext i32 %60 to i64
  %62 = call noundef nonnull align 8 dereferenceable(8) ptr @_ZNSt6vectorIdSaIdEEixEm(ptr noundef nonnull align 8 dereferenceable(24) %59, i64 noundef %61) #3
  store double %58, ptr %62, align 8
  br label %63

63:                                               ; preds = %50
  %64 = load i32, ptr %13, align 4
  %65 = add nsw i32 %64, 1
  store i32 %65, ptr %13, align 4
  br label %46, !llvm.loop !21

66:                                               ; preds = %46
  ret void

67:                                               ; preds = %23
  %68 = load ptr, ptr %9, align 8
  %69 = load i32, ptr %10, align 4
  %70 = insertvalue { ptr, i32 } poison, ptr %68, 0
  %71 = insertvalue { ptr, i32 } %70, i32 %69, 1
  resume { ptr, i32 } %71
}