; Function Attrs: mustprogress uwtable
define void @_ZN10open_spiel10algorithms18CFRInfoStateValues30ApplyRegretMatchingAllPositiveEd(ptr nocapture noundef nonnull readonly align 8 dereferenceable(96) %0, double noundef %1) local_unnamed_addr #4 align 2 personality ptr @__gxx_personality_v0 {
  %3 = alloca double, align 8
  %4 = alloca i32, align 4
  %5 = alloca %"class.std::__cxx11::basic_string", align 8
  %6 = alloca i32, align 4
  store double %1, ptr %3, align 8
  store i32 0, ptr %4, align 4
  %7 = fcmp ogt double %1, 0.000000e+00
  br i1 %7, label %.preheader18, label %19

.preheader18:                                     ; preds = %2
  %8 = getelementptr inbounds nuw i8, ptr %0, i64 8
  %9 = load ptr, ptr %8, align 8
  %10 = load ptr, ptr %0, align 8
  %11 = ptrtoint ptr %9 to i64
  %12 = ptrtoint ptr %10 to i64
  %13 = sub i64 %11, %12
  %14 = lshr exact i64 %13, 3
  %15 = trunc i64 %14 to i32
  %16 = icmp sgt i32 %15, 0
  br i1 %16, label %.lr.ph, label %._crit_edge

.lr.ph:                                           ; preds = %.preheader18
  %17 = getelementptr inbounds nuw i8, ptr %0, i64 24
  %18 = load ptr, ptr %17, align 8
  %wide.trip.count = and i64 %14, 2147483647
  br label %25

19:                                               ; preds = %2
  store i32 586, ptr %6, align 4
  call void @_ZN10open_spiel8internal11SpielStrCatIJRA127_KcRA2_S2_iS6_RA10_S2_RA7_S2_RA4_S2_RdSA_RiEEENSt7__cxx1112basic_stringIcSt11char_traitsIcESaIcEEEDpOT_(ptr dead_on_unwind nonnull writable sret(%"class.std::__cxx11::basic_string") align 8 %5, ptr noundef nonnull align 1 dereferenceable(127) @.str.2, ptr noundef nonnull align 1 dereferenceable(2) @.str.3, ptr noundef nonnull align 4 dereferenceable(4) %6, ptr noundef nonnull align 1 dereferenceable(2) @.str.4, ptr noundef nonnull align 1 dereferenceable(10) @.str.36, ptr noundef nonnull align 1 dereferenceable(7) @.str.37, ptr noundef nonnull align 1 dereferenceable(4) @.str.7, ptr noundef nonnull align 8 dereferenceable(8) %3, ptr noundef nonnull align 1 dereferenceable(7) @.str.38, ptr noundef nonnull align 4 dereferenceable(4) %4)
  invoke void @_ZN10open_spiel15SpielFatalErrorERKNSt7__cxx1112basic_stringIcSt11char_traitsIcESaIcEEE(ptr noundef nonnull align 8 dereferenceable(32) %5) #27
          to label %20 unwind label %21

20:                                               ; preds = %19
  unreachable

21:                                               ; preds = %19
  %22 = landingpad { ptr, i32 }
          cleanup
  call void @_ZNSt7__cxx1112basic_stringIcSt11char_traitsIcESaIcEED1Ev(ptr noundef nonnull align 8 dereferenceable(32) %5) #26
  resume { ptr, i32 } %22

.lr.ph22:                                         ; preds = %25
  %23 = getelementptr inbounds nuw i8, ptr %0, i64 24
  %24 = getelementptr inbounds nuw i8, ptr %0, i64 72
  br label %30

25:                                               ; preds = %.lr.ph, %25
  %indvars.iv = phi i64 [ 0, %.lr.ph ], [ %indvars.iv.next, %25 ]
  %.01219 = phi double [ 0.000000e+00, %.lr.ph ], [ %29, %25 ]
  %26 = getelementptr inbounds double, ptr %18, i64 %indvars.iv
  %27 = load double, ptr %26, align 8
  %28 = fcmp olt double %27, %1
  %.sroa.speculated17 = select i1 %28, double %1, double %27
  %29 = fadd double %.01219, %.sroa.speculated17
  %indvars.iv.next = add nuw nsw i64 %indvars.iv, 1
  %exitcond.not = icmp eq i64 %indvars.iv.next, %wide.trip.count
  br i1 %exitcond.not, label %.lr.ph22, label %25, !llvm.loop !166

30:                                               ; preds = %.lr.ph22, %30
  %indvars.iv24 = phi i64 [ 0, %.lr.ph22 ], [ %indvars.iv.next25, %30 ]
  %31 = load ptr, ptr %23, align 8
  %32 = getelementptr inbounds double, ptr %31, i64 %indvars.iv24
  %33 = load double, ptr %32, align 8
  %34 = fcmp olt double %33, %1
  %.sroa.speculated = select i1 %34, double %1, double %33
  %35 = fdiv double %.sroa.speculated, %29
  %36 = load ptr, ptr %24, align 8
  %37 = getelementptr inbounds double, ptr %36, i64 %indvars.iv24
  store double %35, ptr %37, align 8
  %indvars.iv.next25 = add nuw nsw i64 %indvars.iv24, 1
  %38 = load ptr, ptr %8, align 8
  %39 = load ptr, ptr %0, align 8
  %40 = ptrtoint ptr %38 to i64
  %41 = ptrtoint ptr %39 to i64
  %42 = sub i64 %40, %41
  %sext = shl i64 %42, 29
  %43 = ashr i64 %sext, 32
  %44 = icmp slt i64 %indvars.iv.next25, %43
  br i1 %44, label %30, label %._crit_edge, !llvm.loop !167

._crit_edge:                                      ; preds = %30, %.preheader18
  ret void
}